; Function Attrs: nounwind uwtable
define ptr @l___private_Lean_Widget_InteractiveGoal_0__Lean_Widget_fromJsonRpcEncodablePacket____x40_Lean_Widget_InteractiveGoal___hyg_3365_(ptr noundef %0) #1 {
  %2 = load ptr, ptr @l___private_Lean_Widget_InteractiveGoal_0__Lean_Widget_fromJsonRpcEncodablePacket____x40_Lean_Widget_InteractiveGoal___hyg_3365____closed__1, align 8, !tbaa !4
  %3 = tail call ptr @l_Lean_Json_getObjValAs_x3f___at___private_Lean_Data_Lsp_Extra_0__Lean_Lsp_fromJsonRpcCallParams____x40_Lean_Data_Lsp_Extra___hyg_2250____spec__2(ptr noundef %0, ptr noundef %2) #6
  %.val = load i32, ptr %3, align 4, !tbaa !8
  %4 = icmp eq i32 %.val, 1
  br i1 %4, label %30, label %5

5:                                                ; preds = %1
  %6 = getelementptr inbounds nuw i8, ptr %3, i64 8
  %7 = load ptr, ptr %6, align 8, !tbaa !4
  %8 = ptrtoint ptr %7 to i64
  %9 = and i64 %8, 1
  %.not = icmp eq i64 %9, 0
  br i1 %.not, label %10, label %lean_inc.exit

10:                                               ; preds = %5
  %.val.i = load i32, ptr %7, align 4, !tbaa !8
  %11 = icmp sgt i32 %.val.i, 0
  br i1 %11, label %12, label %14, !prof !11

12:                                               ; preds = %10
  %13 = add nuw i32 %.val.i, 1
  store i32 %13, ptr %7, align 4, !tbaa !8
  br label %lean_inc.exit

14:                                               ; preds = %10
  %.not.i11 = icmp eq i32 %.val.i, 0
  br i1 %.not.i11, label %lean_inc.exit, label %15

15:                                               ; preds = %14
  tail call void @lean_inc_ref_cold(ptr noundef nonnull %7) #6
  br label %lean_inc.exit

lean_inc.exit:                                    ; preds = %15, %14, %12, %5
  %16 = ptrtoint ptr %3 to i64
  %17 = and i64 %16, 1
  %.not12 = icmp eq i64 %17, 0
  br i1 %.not12, label %18, label %lean_dec.exit

18:                                               ; preds = %lean_inc.exit
  %19 = load i32, ptr %3, align 4, !tbaa !8
  %20 = icmp sgt i32 %19, 1
  br i1 %20, label %21, label %23, !prof !11

21:                                               ; preds = %18
  %22 = add nsw i32 %19, -1
  store i32 %22, ptr %3, align 4, !tbaa !8
  br label %lean_dec.exit

23:                                               ; preds = %18
  %.not.i = icmp eq i32 %19, 0
  br i1 %.not.i, label %lean_dec.exit, label %24

24:                                               ; preds = %23
  tail call void @lean_dec_ref_cold(ptr noundef nonnull %3) #6
  br label %lean_dec.exit

lean_dec.exit:                                    ; preds = %24, %23, %21, %lean_inc.exit
  tail call void @lean_inc_heartbeat() #6
  %25 = tail call noalias ptr @mi_malloc_small(i64 noundef 16) #6
  %26 = icmp eq ptr %25, null
  br i1 %26, label %27, label %lean_alloc_ctor.exit

27:                                               ; preds = %lean_dec.exit
  tail call void @lean_internal_panic_out_of_memory() #7
  unreachable

lean_alloc_ctor.exit:                             ; preds = %lean_dec.exit
  %28 = getelementptr inbounds nuw i8, ptr %25, i64 4
  store i32 1, ptr %25, align 4, !tbaa !8
  store i32 16842768, ptr %28, align 4
  %29 = getelementptr inbounds nuw i8, ptr %25, i64 8
  store ptr %7, ptr %29, align 8, !tbaa !4
  br label %30

30:                                               ; preds = %1, %lean_alloc_ctor.exit
  %.0 = phi ptr [ %25, %lean_alloc_ctor.exit ], [ %3, %1 ]
  ret ptr %.0
}